target datalayout = "e-m:e-p270:32:32-p271:32:32-p272:64:64-i64:64-i128:128-f80:128-n8:16:32:64-S128"
target triple = "x86_64-pc-linux-gnu"

%"class.clang::SourceLocation" = type { i32 }
%"class.clang::SemaBase::SemaDiagnosticBuilder" = type { ptr, %"class.clang::SourceLocation", i32, ptr, i8, [7 x i8], %"class.std::optional.1110", %"class.std::optional.1090" }
%"class.std::optional.1110" = type { %"struct.std::_Optional_base.1111" }
%"struct.std::_Optional_base.1111" = type { %"struct.std::_Optional_payload.1113" }
%"struct.std::_Optional_payload.1113" = type { %"struct.std::_Optional_payload.base.1117", [7 x i8] }
%"struct.std::_Optional_payload.base.1117" = type { %"struct.std::_Optional_payload_base.base.1116" }
%"struct.std::_Optional_payload_base.base.1116" = type { %"union.std::_Optional_payload_base<clang::SemaBase::ImmediateDiagBuilder>::_Storage", i8 }
%"union.std::_Optional_payload_base<clang::SemaBase::ImmediateDiagBuilder>::_Storage" = type { %"class.clang::SemaBase::ImmediateDiagBuilder" }
%"class.clang::SemaBase::ImmediateDiagBuilder" = type <{ %"class.clang::DiagnosticBuilder.base", [6 x i8], ptr, i32, [4 x i8] }>
%"class.clang::DiagnosticBuilder.base" = type <{ %"class.clang::StreamingDiagnostic", ptr, i8, i8 }>
%"class.clang::StreamingDiagnostic" = type { ptr, ptr }
%"class.std::optional.1090" = type { %"struct.std::_Optional_base.1091" }
%"struct.std::_Optional_base.1091" = type { %"struct.std::_Optional_payload.1093" }
%"struct.std::_Optional_payload.1093" = type { %"struct.std::_Optional_payload_base.base.1095", [3 x i8] }
%"struct.std::_Optional_payload_base.base.1095" = type <{ %"union.std::_Optional_payload_base<unsigned int>::_Storage", i8 }>
%"union.std::_Optional_payload_base<unsigned int>::_Storage" = type { i32 }
%"class.clang::SourceRange" = type { %"class.clang::SourceLocation", %"class.clang::SourceLocation" }
%"class.llvm::ArrayRef.1774" = type { ptr, i64 }

; Function Attrs: mustprogress nounwind uwtable
define linkonce_odr hidden i32 @_ZNK5clang11SourceRange8getBeginEv(ptr noundef nonnull align 4 dereferenceable(8) %0) #0 comdat align 2 {
  %2 = alloca %"class.clang::SourceLocation", align 4
  %3 = alloca ptr, align 8
  store ptr %0, ptr %3, align 8
  %4 = load ptr, ptr %3, align 8
  %5 = getelementptr inbounds nuw %"class.clang::SourceRange", ptr %4, i32 0, i32 0
  call void @llvm.memcpy.p0.p0.i64(ptr align 4 %2, ptr align 4 %5, i64 4, i1 false)
  %6 = getelementptr inbounds nuw %"class.clang::SourceLocation", ptr %2, i32 0, i32 0
  %7 = load i32, ptr %6, align 4
  ret i32 %7
}

; Function Attrs: mustprogress nounwind uwtable
define internal void @_ZN12_GLOBAL__N_118CheckFormatHandler20EmitFormatDiagnosticIN5clang11SourceRangeEEEvRNS2_4SemaEbPKNS2_4ExprERKNS2_17PartialDiagnosticENS2_14SourceLocationEbT_N4llvm8ArrayRefINS2_9FixItHintEEE(ptr noundef nonnull align 8 dereferenceable(17560) %0, i1 noundef zeroext %1, ptr noundef %2, ptr noundef nonnull align 8 dereferenceable(20) %3, i32 %4, i1 noundef zeroext %5, i64 %6, ptr noundef byval(%"class.llvm::ArrayRef.1774") align 8 %7) #0 align 2 {
  %9 = alloca %"class.clang::SourceLocation", align 4
  %10 = alloca %"class.clang::SourceRange", align 4
  %11 = alloca ptr, align 8
  %12 = alloca i8, align 1
  %13 = alloca ptr, align 8
  %14 = alloca ptr, align 8
  %15 = alloca i8, align 1
  %16 = alloca ptr, align 8
  %17 = alloca %"class.clang::SemaBase::SemaDiagnosticBuilder", align 8
  %18 = alloca %"class.clang::SourceLocation", align 4
  %19 = alloca %"class.clang::SemaBase::SemaDiagnosticBuilder", align 8
  %20 = alloca %"class.clang::SourceLocation", align 4
  %21 = alloca %"class.clang::SourceRange", align 4
  %22 = alloca ptr, align 8
  %23 = alloca %"class.clang::SemaBase::SemaDiagnosticBuilder", align 8
  %24 = alloca %"class.clang::SourceLocation", align 4
  %25 = getelementptr inbounds nuw %"class.clang::SourceLocation", ptr %9, i32 0, i32 0
  store i32 %4, ptr %25, align 4
  store i64 %6, ptr %10, align 4
  store ptr %0, ptr %11, align 8
  %26 = zext i1 %1 to i8
  store i8 %26, ptr %12, align 1
  store ptr %2, ptr %13, align 8
  store ptr %3, ptr %14, align 8
  %27 = zext i1 %5 to i8
  store i8 %27, ptr %15, align 1
  %28 = load i8, ptr %12, align 1
  %29 = trunc i8 %28 to i1
  br i1 %29, label %30, label %40

30:                                               ; preds = %8
  %31 = load ptr, ptr %11, align 8
  %32 = getelementptr inbounds i8, ptr %31, i64 8
  call void @llvm.memcpy.p0.p0.i64(ptr align 4 %18, ptr align 4 %9, i64 4, i1 false)
  %33 = load ptr, ptr %14, align 8
  %34 = getelementptr inbounds nuw %"class.clang::SourceLocation", ptr %18, i32 0, i32 0
  %35 = load i32, ptr %34, align 4
  call void @_ZN5clang8SemaBase4DiagENS_14SourceLocationERKNS_17PartialDiagnosticEb(ptr dead_on_unwind writable sret(%"class.clang::SemaBase::SemaDiagnosticBuilder") align 8 %17, ptr noundef nonnull align 8 dereferenceable(8) %32, i32 %35, ptr noundef nonnull align 8 dereferenceable(20) %33, i1 noundef zeroext false)
  store ptr %17, ptr %16, align 8
  %36 = load ptr, ptr %16, align 8
  %37 = call noundef nonnull align 8 dereferenceable(96) ptr @_ZN5clanglsINS_11SourceRangeEEERKNS_8SemaBase21SemaDiagnosticBuilderES5_RKT_(ptr noundef nonnull align 8 dereferenceable(96) %36, ptr noundef nonnull align 4 dereferenceable(8) %10)
  %38 = load ptr, ptr %16, align 8
  %39 = call noundef nonnull align 8 dereferenceable(96) ptr @_ZN5clanglsIN4llvm8ArrayRefINS_9FixItHintEEEEERKNS_8SemaBase21SemaDiagnosticBuilderES8_RKT_(ptr noundef nonnull align 8 dereferenceable(96) %38, ptr noundef nonnull align 8 dereferenceable(16) %7)
  call void @_ZN5clang8SemaBase21SemaDiagnosticBuilderD1Ev(ptr noundef nonnull align 8 dereferenceable(96) %17) #15
  br label %72

40:                                               ; preds = %8
  %41 = load ptr, ptr %11, align 8
  %42 = getelementptr inbounds i8, ptr %41, i64 8
  %43 = load i8, ptr %15, align 1
  %44 = trunc i8 %43 to i1
  br i1 %44, label %45, label %49

45:                                               ; preds = %40
  %46 = load ptr, ptr %13, align 8
  %47 = call i32 @_ZNK5clang4Expr10getExprLocEv(ptr noundef nonnull align 8 dereferenceable(16) %46) #14
  %48 = getelementptr inbounds nuw %"class.clang::SourceLocation", ptr %20, i32 0, i32 0
  store i32 %47, ptr %48, align 4
  br label %50

49:                                               ; preds = %40
  call void @llvm.memcpy.p0.p0.i64(ptr align 4 %20, ptr align 4 %9, i64 4, i1 false)
  br label %50

50:                                               ; preds = %49, %45
  %51 = load ptr, ptr %14, align 8
  %52 = getelementptr inbounds nuw %"class.clang::SourceLocation", ptr %20, i32 0, i32 0
  %53 = load i32, ptr %52, align 4
  call void @_ZN5clang8SemaBase4DiagENS_14SourceLocationERKNS_17PartialDiagnosticEb(ptr dead_on_unwind writable sret(%"class.clang::SemaBase::SemaDiagnosticBuilder") align 8 %19, ptr noundef nonnull align 8 dereferenceable(8) %42, i32 %53, ptr noundef nonnull align 8 dereferenceable(20) %51, i1 noundef zeroext false)
  %54 = load ptr, ptr %13, align 8
  %55 = call i64 @_ZNK5clang4Stmt14getSourceRangeEv(ptr noundef nonnull align 8 dereferenceable(8) %54) #14
  store i64 %55, ptr %21, align 4
  %56 = call noundef nonnull align 8 dereferenceable(96) ptr @_ZNK5clang8SemaBase21SemaDiagnosticBuilderlsINS_11SourceRangeEvEERKS1_OT_(ptr noundef nonnull align 8 dereferenceable(96) %19, ptr noundef nonnull align 4 dereferenceable(8) %21)
  call void @_ZN5clang8SemaBase21SemaDiagnosticBuilderD1Ev(ptr noundef nonnull align 8 dereferenceable(96) %19) #15
  %57 = load ptr, ptr %11, align 8
  %58 = getelementptr inbounds i8, ptr %57, i64 8
  %59 = load i8, ptr %15, align 1
  %60 = trunc i8 %59 to i1
  br i1 %60, label %61, label %62

61:                                               ; preds = %50
  call void @llvm.memcpy.p0.p0.i64(ptr align 4 %24, ptr align 4 %9, i64 4, i1 false)
  br label %65

62:                                               ; preds = %50
  %63 = call i32 @_ZNK5clang11SourceRange8getBeginEv(ptr noundef nonnull align 4 dereferenceable(8) %10)
  %64 = getelementptr inbounds nuw %"class.clang::SourceLocation", ptr %24, i32 0, i32 0
  store i32 %63, ptr %64, align 4
  br label %65

65:                                               ; preds = %62, %61
  %66 = getelementptr inbounds nuw %"class.clang::SourceLocation", ptr %24, i32 0, i32 0
  %67 = load i32, ptr %66, align 4
  call void @_ZN5clang8SemaBase4DiagENS_14SourceLocationEjb(ptr dead_on_unwind writable sret(%"class.clang::SemaBase::SemaDiagnosticBuilder") align 8 %23, ptr noundef nonnull align 8 dereferenceable(8) %58, i32 %67, i32 noundef 5604, i1 noundef zeroext false)
  store ptr %23, ptr %22, align 8
  %68 = load ptr, ptr %22, align 8
  %69 = call noundef nonnull align 8 dereferenceable(96) ptr @_ZN5clanglsINS_11SourceRangeEEERKNS_8SemaBase21SemaDiagnosticBuilderES5_RKT_(ptr noundef nonnull align 8 dereferenceable(96) %68, ptr noundef nonnull align 4 dereferenceable(8) %10)
  %70 = load ptr, ptr %22, align 8
  %71 = call noundef nonnull align 8 dereferenceable(96) ptr @_ZN5clanglsIN4llvm8ArrayRefINS_9FixItHintEEEEERKNS_8SemaBase21SemaDiagnosticBuilderES8_RKT_(ptr noundef nonnull align 8 dereferenceable(96) %70, ptr noundef nonnull align 8 dereferenceable(16) %7)
  call void @_ZN5clang8SemaBase21SemaDiagnosticBuilderD1Ev(ptr noundef nonnull align 8 dereferenceable(96) %23) #15
  br label %72

72:                                               ; preds = %65, %30
  ret void
}