; Function Attrs: mustprogress nounwind uwtable
define internal fastcc void @_ZN12_GLOBAL__N_118CheckFormatHandler20EmitFormatDiagnosticIN5clang11SourceRangeEEEvRNS2_4SemaEbPKNS2_4ExprERKNS2_17PartialDiagnosticENS2_14SourceLocationEbT_N4llvm8ArrayRefINS2_9FixItHintEEE(ptr noundef nonnull align 8 dereferenceable(17560) %0, i1 noundef zeroext %1, ptr noundef %2, ptr noundef nonnull align 8 dereferenceable(20) %3, i32 %4, i1 noundef zeroext %5, i64 %6, ptr noundef byval(%"class.llvm::ArrayRef.1774") align 8 %7) unnamed_addr #0 align 2 {
  %9 = alloca %"class.clang::SourceRange", align 8
  %10 = alloca %"class.clang::SemaBase::SemaDiagnosticBuilder", align 8
  %11 = alloca %"class.clang::SemaBase::SemaDiagnosticBuilder", align 8
  %12 = alloca %"class.clang::SourceRange", align 8
  %13 = alloca %"class.clang::SemaBase::SemaDiagnosticBuilder", align 8
  store i64 %6, ptr %9, align 8
  %14 = getelementptr inbounds i8, ptr %0, i64 8
  br i1 %1, label %15, label %16

15:                                               ; preds = %8
  call void @_ZN5clang8SemaBase4DiagENS_14SourceLocationERKNS_17PartialDiagnosticEb(ptr dead_on_unwind nonnull writable sret(%"class.clang::SemaBase::SemaDiagnosticBuilder") align 8 %10, ptr noundef nonnull align 8 dereferenceable(8) %14, i32 %4, ptr noundef nonnull align 8 dereferenceable(20) %3, i1 noundef zeroext false) #25
  br label %24

16:                                               ; preds = %8
  br i1 %5, label %17, label %.critedge

17:                                               ; preds = %16
  %18 = tail call i32 @_ZNK5clang4Expr10getExprLocEv(ptr noundef nonnull align 8 dereferenceable(16) %2) #26
  call void @_ZN5clang8SemaBase4DiagENS_14SourceLocationERKNS_17PartialDiagnosticEb(ptr dead_on_unwind nonnull writable sret(%"class.clang::SemaBase::SemaDiagnosticBuilder") align 8 %11, ptr noundef nonnull align 8 dereferenceable(8) %14, i32 %18, ptr noundef nonnull align 8 dereferenceable(20) %3, i1 noundef zeroext false) #25
  %19 = call i64 @_ZNK5clang4Stmt14getSourceRangeEv(ptr noundef nonnull align 8 dereferenceable(8) %2) #26
  store i64 %19, ptr %12, align 8
  %20 = call noundef nonnull align 8 dereferenceable(96) ptr @_ZNK5clang8SemaBase21SemaDiagnosticBuilderlsINS_11SourceRangeEvEERKS1_OT_(ptr noundef nonnull align 8 dereferenceable(96) %11, ptr noundef nonnull align 4 dereferenceable(8) %12)
  call void @_ZN5clang8SemaBase21SemaDiagnosticBuilderD1Ev(ptr noundef nonnull align 8 dereferenceable(96) %11) #25
  br label %23

.critedge:                                        ; preds = %16
  call void @_ZN5clang8SemaBase4DiagENS_14SourceLocationERKNS_17PartialDiagnosticEb(ptr dead_on_unwind nonnull writable sret(%"class.clang::SemaBase::SemaDiagnosticBuilder") align 8 %11, ptr noundef nonnull align 8 dereferenceable(8) %14, i32 %4, ptr noundef nonnull align 8 dereferenceable(20) %3, i1 noundef zeroext false) #25
  %21 = call i64 @_ZNK5clang4Stmt14getSourceRangeEv(ptr noundef nonnull align 8 dereferenceable(8) %2) #26
  store i64 %21, ptr %12, align 8
  %22 = call noundef nonnull align 8 dereferenceable(96) ptr @_ZNK5clang8SemaBase21SemaDiagnosticBuilderlsINS_11SourceRangeEvEERKS1_OT_(ptr noundef nonnull align 8 dereferenceable(96) %11, ptr noundef nonnull align 4 dereferenceable(8) %12)
  call void @_ZN5clang8SemaBase21SemaDiagnosticBuilderD1Ev(ptr noundef nonnull align 8 dereferenceable(96) %11) #25
  %.sroa.0.0.copyload.i = load i32, ptr %9, align 8
  br label %23

23:                                               ; preds = %17, %.critedge
  %.sroa.0.0 = phi i32 [ %.sroa.0.0.copyload.i, %.critedge ], [ %4, %17 ]
  call void @_ZN5clang8SemaBase4DiagENS_14SourceLocationEjb(ptr dead_on_unwind nonnull writable sret(%"class.clang::SemaBase::SemaDiagnosticBuilder") align 8 %13, ptr noundef nonnull align 8 dereferenceable(8) %14, i32 %.sroa.0.0, i32 noundef 5604, i1 noundef zeroext false) #25
  br label %24

24:                                               ; preds = %23, %15
  %.sink19 = phi ptr [ %13, %23 ], [ %10, %15 ]
  %25 = call noundef nonnull align 8 dereferenceable(96) ptr @_ZN5clanglsINS_11SourceRangeEEERKNS_8SemaBase21SemaDiagnosticBuilderES5_RKT_(ptr noundef nonnull align 8 dereferenceable(96) %.sink19, ptr noundef nonnull align 4 dereferenceable(8) %9)
  %26 = call noundef nonnull align 8 dereferenceable(96) ptr @_ZN5clanglsIN4llvm8ArrayRefINS_9FixItHintEEEEERKNS_8SemaBase21SemaDiagnosticBuilderES8_RKT_(ptr noundef nonnull align 8 dereferenceable(96) %.sink19, ptr noundef nonnull align 8 dereferenceable(16) %7)
  call void @_ZN5clang8SemaBase21SemaDiagnosticBuilderD1Ev(ptr noundef nonnull align 8 dereferenceable(96) %.sink19) #25
  ret void
}